(ivicsek_arr
param
p0
(dp1
S'dN'
p2
I10
sS'r2'
p3
I100
sS'N'
p4
I100
sS'width'
p5
I1024
sS'r'
p6
I10
sS'T'
p7
I100
sS'path'
p8
S'./DATA/w1024h256N100T100r10n0.42v10_1_1'
p9
sS'n'
p10
F0.42
sS'dt'
p11
I10
sS'height'
p12
I256
sS'speed'
p13
I10
sb.